(lp0
(dp1
Vdomain
p2
V.facebook.com
p3
sVsecure
p4
I01
sVvalue
p5
V1
p6
sVexpiry
p7
F1512911945.487646
sVpath
p8
V/
p9
sVhttpOnly
p10
I01
sVname
p11
Vdats
p12
sa(dp13
Vdomain
p14
V.facebook.com
p15
sVsecure
p16
I01
sVvalue
p17
VQeY_WQquD44iD_FkptnW9IaQ
p18
sVexpiry
p19
F1560431945.487562
sVpath
p20
g9
sVhttpOnly
p21
I01
sVname
p22
Vdatr
p23
sa(dp24
Vdomain
p25
V.facebook.com
p26
sVsecure
p27
I01
sVvalue
p28
VgA
p29
sVexpiry
p30
I1560425157
sVpath
p31
g9
sVhttpOnly
p32
I00
sVname
p33
Vlu
p34
sa(dp35
Vdomain
p36
V.google.com
p37
sVsecure
p38
I00
sVvalue
p39
V105=rz3urFI4fgRdVAVXZpYCGZFY1cFaa7h_gBy1dwhQj9bjVwQx9Da77GvrTxhk6UuKBvRahw0RvAs1YbpO-1-ige4lQt1dEFr7etLWzrLlabl6uairsCXQG3vxYoC5KV6h
p40
sVexpiry
p41
F1513171185.822257
sVpath
p42
g9
sVhttpOnly
p43
I01
sVname
p44
VNID
p45
sa(dp46
Vdomain
p47
V.facebook.com
p48
sVsecure
p49
I01
sVvalue
p50
V6%3A2_zSDa7JNLCIOg%3A2%3A1497353155%3A-1%3A-1
p51
sVexpiry
p52
I1505129157
sVpath
p53
g9
sVhttpOnly
p54
I00
sVname
p55
Vxs
p56
sa(dp57
Vdomain
p58
V.facebook.com
p59
sVsecure
p60
I01
sVvalue
p61
V100017627533416
p62
sVexpiry
p63
I1505129157
sVpath
p64
g9
sVhttpOnly
p65
I00
sVname
p66
Vc_user
p67
sa(dp68
Vdomain
p69
V.facebook.com
p70
sVname
p71
Vpresence
p72
sVvalue
p73
VEDvF3EtimeF1497359987EuserFA21B17627533416A2EstateFDutF1497359987742CEchF_7bCC
p74
sVpath
p75
g9
sVhttpOnly
p76
I00
sVsecure
p77
I01
sa(dp78
Vdomain
p79
V.facebook.com
p80
sVsecure
p81
I01
sVvalue
p82
Vn
p83
sVexpiry
p84
I1505129157
sVpath
p85
g9
sVhttpOnly
p86
I00
sVname
p87
Vpl
p88
sa(dp89
Vdomain
p90
V.facebook.com
p91
sVsecure
p92
I01
sVvalue
p93
Vw8s_WZo5HtOBK-4wbSvIcal_
p94
sVexpiry
p95
I1560425157
sVpath
p96
g9
sVhttpOnly
p97
I00
sVname
p98
Vsb
p99
sa(dp100
Vdomain
p101
V.facebook.com
p102
sVsecure
p103
I01
sVvalue
p104
V0sUjf1ydwvzfiWTnF..BZP-ZB.rz.AAA.0.0.BZP-ZB.AWXSQtdb
p105
sVexpiry
p106
F1505135939.219392
sVpath
p107
g9
sVhttpOnly
p108
I01
sVname
p109
Vfr
p110
sa.